; ModuleID = '7/211.c'
source_filename = "7/211.c"
target datalayout = "e-m:e-p270:32:32-p271:32:32-p272:64:64-i64:64-f80:128-n8:16:32:64-S128"
target triple = "x86_64-pc-linux-gnu"

@.str = private unnamed_addr constant [3 x i8] c"%s\00", align 1
@.str.1 = private unnamed_addr constant [3 x i8] c"%c\00", align 1

; Function Attrs: noinline nounwind uwtable
define dso_local i32 @main() #0 {
  %1 = alloca i32, align 4
  %2 = alloca [266 x i8], align 16
  %3 = alloca [266 x i8], align 16
  %4 = alloca [266 x i8], align 16
  %5 = alloca i32, align 4
  %6 = alloca i32, align 4
  %7 = alloca i32, align 4
  %8 = alloca i32, align 4
  %9 = alloca i32, align 4
  %10 = alloca i32, align 4
  %11 = alloca i32, align 4
  store i32 0, i32* %1, align 4
  store i32 0, i32* %7, align 4
  store i32 0, i32* %8, align 4
  store i32 0, i32* %9, align 4
  store i32 0, i32* %10, align 4
  store i32 0, i32* %11, align 4
  %12 = getelementptr inbounds [266 x i8], [266 x i8]* %2, i64 0, i64 0
  %13 = call i32 (i8*, ...) @__isoc99_scanf(i8* getelementptr inbounds ([3 x i8], [3 x i8]* @.str, i64 0, i64 0), i8* %12)
  %14 = getelementptr inbounds [266 x i8], [266 x i8]* %2, i64 0, i64 0
  %15 = call i64 @strlen(i8* %14) #3
  %16 = trunc i64 %15 to i32
  store i32 %16, i32* %8, align 4
  %17 = getelementptr inbounds [266 x i8], [266 x i8]* %3, i64 0, i64 0
  %18 = call i32 (i8*, ...) @__isoc99_scanf(i8* getelementptr inbounds ([3 x i8], [3 x i8]* @.str, i64 0, i64 0), i8* %17)
  %19 = getelementptr inbounds [266 x i8], [266 x i8]* %3, i64 0, i64 0
  %20 = call i64 @strlen(i8* %19) #3
  %21 = trunc i64 %20 to i32
  store i32 %21, i32* %9, align 4
  %22 = getelementptr inbounds [266 x i8], [266 x i8]* %4, i64 0, i64 0
  %23 = call i32 (i8*, ...) @__isoc99_scanf(i8* getelementptr inbounds ([3 x i8], [3 x i8]* @.str, i64 0, i64 0), i8* %22)
  store i32 0, i32* %5, align 4
  br label %24

24:                                               ; preds = %72, %0
  %25 = load i32, i32* %5, align 4
  %26 = load i32, i32* %8, align 4
  %27 = icmp slt i32 %25, %26
  br i1 %27, label %28, label %75

28:                                               ; preds = %24
  %29 = load i32, i32* %5, align 4
  %30 = sext i32 %29 to i64
  %31 = getelementptr inbounds [266 x i8], [266 x i8]* %2, i64 0, i64 %30
  %32 = load i8, i8* %31, align 1
  %33 = sext i8 %32 to i32
  %34 = getelementptr inbounds [266 x i8], [266 x i8]* %3, i64 0, i64 0
  %35 = load i8, i8* %34, align 16
  %36 = sext i8 %35 to i32
  %37 = icmp eq i32 %33, %36
  br i1 %37, label %38, label %71

38:                                               ; preds = %28
  store i32 0, i32* %6, align 4
  br label %39

39:                                               ; preds = %67, %38
  %40 = load i32, i32* %6, align 4
  %41 = load i32, i32* %9, align 4
  %42 = icmp slt i32 %40, %41
  br i1 %42, label %43, label %70

43:                                               ; preds = %39
  %44 = load i32, i32* %5, align 4
  %45 = load i32, i32* %6, align 4
  %46 = add nsw i32 %44, %45
  %47 = sext i32 %46 to i64
  %48 = getelementptr inbounds [266 x i8], [266 x i8]* %2, i64 0, i64 %47
  %49 = load i8, i8* %48, align 1
  %50 = sext i8 %49 to i32
  %51 = load i32, i32* %6, align 4
  %52 = sext i32 %51 to i64
  %53 = getelementptr inbounds [266 x i8], [266 x i8]* %3, i64 0, i64 %52
  %54 = load i8, i8* %53, align 1
  %55 = sext i8 %54 to i32
  %56 = icmp eq i32 %50, %55
  br i1 %56, label %57, label %66

57:                                               ; preds = %43
  %58 = load i32, i32* %7, align 4
  %59 = add nsw i32 %58, 1
  store i32 %59, i32* %7, align 4
  %60 = load i32, i32* %7, align 4
  %61 = load i32, i32* %9, align 4
  %62 = icmp eq i32 %60, %61
  br i1 %62, label %63, label %65

63:                                               ; preds = %57
  %64 = load i32, i32* %5, align 4
  store i32 %64, i32* %10, align 4
  store i32 1, i32* %11, align 4
  br label %65

65:                                               ; preds = %63, %57
  br label %66

66:                                               ; preds = %65, %43
  br label %67

67:                                               ; preds = %66
  %68 = load i32, i32* %6, align 4
  %69 = add nsw i32 %68, 1
  store i32 %69, i32* %6, align 4
  br label %39

70:                                               ; preds = %39
  br label %71

71:                                               ; preds = %70, %28
  br label %72

72:                                               ; preds = %71
  %73 = load i32, i32* %5, align 4
  %74 = add nsw i32 %73, 1
  store i32 %74, i32* %5, align 4
  br label %24

75:                                               ; preds = %24
  %76 = load i32, i32* %11, align 4
  %77 = icmp eq i32 %76, 1
  br i1 %77, label %78, label %114

78:                                               ; preds = %75
  store i32 0, i32* %5, align 4
  br label %79

79:                                               ; preds = %90, %78
  %80 = load i32, i32* %5, align 4
  %81 = load i32, i32* %10, align 4
  %82 = icmp slt i32 %80, %81
  br i1 %82, label %83, label %93

83:                                               ; preds = %79
  %84 = load i32, i32* %5, align 4
  %85 = sext i32 %84 to i64
  %86 = getelementptr inbounds [266 x i8], [266 x i8]* %2, i64 0, i64 %85
  %87 = load i8, i8* %86, align 1
  %88 = sext i8 %87 to i32
  %89 = call i32 (i8*, ...) @printf(i8* getelementptr inbounds ([3 x i8], [3 x i8]* @.str.1, i64 0, i64 0), i32 %88)
  br label %90

90:                                               ; preds = %83
  %91 = load i32, i32* %5, align 4
  %92 = add nsw i32 %91, 1
  store i32 %92, i32* %5, align 4
  br label %79

93:                                               ; preds = %79
  %94 = getelementptr inbounds [266 x i8], [266 x i8]* %4, i64 0, i64 0
  %95 = call i32 (i8*, ...) @printf(i8* getelementptr inbounds ([3 x i8], [3 x i8]* @.str, i64 0, i64 0), i8* %94)
  %96 = load i32, i32* %10, align 4
  %97 = load i32, i32* %9, align 4
  %98 = add nsw i32 %96, %97
  store i32 %98, i32* %5, align 4
  br label %99

99:                                               ; preds = %110, %93
  %100 = load i32, i32* %5, align 4
  %101 = load i32, i32* %8, align 4
  %102 = icmp slt i32 %100, %101
  br i1 %102, label %103, label %113

103:                                              ; preds = %99
  %104 = load i32, i32* %5, align 4
  %105 = sext i32 %104 to i64
  %106 = getelementptr inbounds [266 x i8], [266 x i8]* %2, i64 0, i64 %105
  %107 = load i8, i8* %106, align 1
  %108 = sext i8 %107 to i32
  %109 = call i32 (i8*, ...) @printf(i8* getelementptr inbounds ([3 x i8], [3 x i8]* @.str.1, i64 0, i64 0), i32 %108)
  br label %110

110:                                              ; preds = %103
  %111 = load i32, i32* %5, align 4
  %112 = add nsw i32 %111, 1
  store i32 %112, i32* %5, align 4
  br label %99

113:                                              ; preds = %99
  br label %114

114:                                              ; preds = %113, %75
  %115 = load i32, i32* %11, align 4
  %116 = icmp eq i32 %115, 0
  br i1 %116, label %117, label %120

117:                                              ; preds = %114
  %118 = getelementptr inbounds [266 x i8], [266 x i8]* %2, i64 0, i64 0
  %119 = call i32 (i8*, ...) @printf(i8* getelementptr inbounds ([3 x i8], [3 x i8]* @.str, i64 0, i64 0), i8* %118)
  br label %120

120:                                              ; preds = %117, %114
  ret i32 0
}

declare dso_local i32 @__isoc99_scanf(i8*, ...) #1

; Function Attrs: nounwind readonly
declare dso_local i64 @strlen(i8*) #2

declare dso_local i32 @printf(i8*, ...) #1


!llvm.module.flags = !{!0}
!llvm.ident = !{!1}

!0 = !{i32 1, !"wchar_size", i32 4}
!1 = !{!"clang version 10.0.0-4ubuntu1 "}
